(lp1
VkNdNU11LM9GVzx9E4P7R8Q
p2
aVx2ZZWe9fPoO1f4IOSRhW9w
p3
aVD5hlV_L0O1uqAgs4zjVxNA
p4
aVDKX3of0bP667z4LqSVnOpg
p5
aVpsm6oz7BPGibkVckoBF8wA
p6
aVICPqJR9VMmGIuvMqNcxlXg
p7
aVbjcqFitQOTmrw5h6iEeHow
p8
aV_4KupFeSPHS_9u8frmCVEA
p9
aV1VAlHhF2N9SJj8ius_G1QQ
p10
aVsFfr6e_TPOuXucn_kRCASQ
p11
a.