(lp1
ccopy_reg
_reconstructor
p2
(cgnr.sql.adapters._gnrbaseadapter
GnrDictRow
p3
c__builtin__
list
p4
(lp5
Vutente
p6
aVMario Bianchi
p7
aVpippo@pippo.it
p8
aV
aNaVySsXxZqnMimqu19IYS7k1A
p9
aI0
atRp10
(dp11
S'_index'
p12
(dp13
S'username'
p14
I0
sS'pkey'
p15
I5
sS'rowidx'
p16
I6
sS'_tags__tag_id_code'
p17
I3
sS'fullname'
p18
I1
sS'auth_tags'
p19
I4
sS'email'
p20
I2
ssba.